target datalayout = "e-m:e-p270:32:32-p271:32:32-p272:64:64-i64:64-i128:128-f80:128-n8:16:32:64-S128"
target triple = "x86_64-pc-linux-gnu"

%struct.nk_rect = type { float, float, float, float }
%struct.nk_vec2 = type { float, float }
%struct.nk_color = type { i8, i8, i8, i8 }
%struct.nk_allocator = type { %union.nk_handle, ptr, ptr }
%union.nk_handle = type { ptr }
%struct.nk_buffer = type { [2 x %struct.nk_buffer_marker], %struct.nk_allocator, i32, %struct.nk_memory, float, i64, i64, i64, i64 }
%struct.nk_buffer_marker = type { i32, i64 }
%struct.nk_memory = type { ptr, i64 }
%struct.nk_str = type { %struct.nk_buffer, i32 }
%struct.nk_command_buffer = type { ptr, %struct.nk_rect, i32, %union.nk_handle, i64, i64, i64 }
%struct.nk_image = type { %union.nk_handle, i16, i16, [4 x i16] }
%struct.nk_nine_slice = type { %struct.nk_image, i16, i16, i16, i16 }
%struct.nk_draw_list = type { %struct.nk_rect, [12 x %struct.nk_vec2], %struct.nk_convert_config, ptr, ptr, ptr, i32, i32, i32, i64, i32, i32, i32, i32 }
%struct.nk_convert_config = type { float, i32, i32, i32, i32, i32, %struct.nk_draw_null_texture, ptr, i64, i64 }
%struct.nk_draw_null_texture = type { %union.nk_handle, %struct.nk_vec2 }
%struct.nk_context = type { %struct.nk_input, %struct.nk_style, %struct.nk_buffer, %struct.nk_clipboard, i32, i32, %struct.nk_configuration_stacks, float, %struct.nk_draw_list, %struct.nk_text_edit, %struct.nk_command_buffer, i32, i32, %struct.nk_pool, ptr, ptr, ptr, ptr, ptr, i32, i32 }
%struct.nk_input = type { %struct.nk_keyboard, %struct.nk_mouse }
%struct.nk_keyboard = type { [30 x %struct.nk_key], [16 x i8], i32 }
%struct.nk_key = type { i32, i32 }
%struct.nk_mouse = type { [4 x %struct.nk_mouse_button], %struct.nk_vec2, %struct.nk_vec2, %struct.nk_vec2, %struct.nk_vec2, i8, i8, i8 }
%struct.nk_mouse_button = type { i32, i32, %struct.nk_vec2 }
%struct.nk_style = type { ptr, [7 x ptr], ptr, ptr, i32, %struct.nk_style_text, %struct.nk_style_button, %struct.nk_style_button, %struct.nk_style_button, %struct.nk_style_toggle, %struct.nk_style_toggle, %struct.nk_style_selectable, %struct.nk_style_slider, %struct.nk_style_knob, %struct.nk_style_progress, %struct.nk_style_property, %struct.nk_style_edit, %struct.nk_style_chart, %struct.nk_style_scrollbar, %struct.nk_style_scrollbar, %struct.nk_style_tab, %struct.nk_style_combo, %struct.nk_style_window }
%struct.nk_style_text = type { %struct.nk_color, %struct.nk_vec2, float, float }
%struct.nk_style_button = type { %struct.nk_style_item, %struct.nk_style_item, %struct.nk_style_item, %struct.nk_color, float, %struct.nk_color, %struct.nk_color, %struct.nk_color, %struct.nk_color, i32, float, float, float, %struct.nk_vec2, %struct.nk_vec2, %struct.nk_vec2, float, %union.nk_handle, ptr, ptr }
%struct.nk_style_item = type { i32, %union.nk_style_item_data }
%union.nk_style_item_data = type { %struct.nk_nine_slice }
%struct.nk_style_toggle = type { %struct.nk_style_item, %struct.nk_style_item, %struct.nk_style_item, %struct.nk_color, %struct.nk_style_item, %struct.nk_style_item, %struct.nk_color, %struct.nk_color, %struct.nk_color, %struct.nk_color, i32, %struct.nk_vec2, %struct.nk_vec2, float, float, float, float, %union.nk_handle, ptr, ptr }
%struct.nk_style_selectable = type { %struct.nk_style_item, %struct.nk_style_item, %struct.nk_style_item, %struct.nk_style_item, %struct.nk_style_item, %struct.nk_style_item, %struct.nk_color, %struct.nk_color, %struct.nk_color, %struct.nk_color, %struct.nk_color, %struct.nk_color, %struct.nk_color, i32, float, %struct.nk_vec2, %struct.nk_vec2, %struct.nk_vec2, float, float, %union.nk_handle, ptr, ptr }
%struct.nk_style_slider = type { %struct.nk_style_item, %struct.nk_style_item, %struct.nk_style_item, %struct.nk_color, %struct.nk_color, %struct.nk_color, %struct.nk_color, %struct.nk_color, %struct.nk_style_item, %struct.nk_style_item, %struct.nk_style_item, float, float, float, %struct.nk_vec2, %struct.nk_vec2, %struct.nk_vec2, float, float, i32, %struct.nk_style_button, %struct.nk_style_button, i32, i32, %union.nk_handle, ptr, ptr }
%struct.nk_style_knob = type { %struct.nk_style_item, %struct.nk_style_item, %struct.nk_style_item, %struct.nk_color, %struct.nk_color, %struct.nk_color, %struct.nk_color, %struct.nk_color, %struct.nk_color, %struct.nk_color, %struct.nk_color, float, float, %struct.nk_vec2, %struct.nk_vec2, float, float, float, %union.nk_handle, ptr, ptr }
%struct.nk_style_progress = type { %struct.nk_style_item, %struct.nk_style_item, %struct.nk_style_item, %struct.nk_color, %struct.nk_style_item, %struct.nk_style_item, %struct.nk_style_item, %struct.nk_color, float, float, float, float, %struct.nk_vec2, float, float, %union.nk_handle, ptr, ptr }
%struct.nk_style_property = type { %struct.nk_style_item, %struct.nk_style_item, %struct.nk_style_item, %struct.nk_color, %struct.nk_color, %struct.nk_color, %struct.nk_color, i32, i32, float, float, %struct.nk_vec2, float, float, %struct.nk_style_edit, %struct.nk_style_button, %struct.nk_style_button, %union.nk_handle, ptr, ptr }
%struct.nk_style_edit = type { %struct.nk_style_item, %struct.nk_style_item, %struct.nk_style_item, %struct.nk_color, %struct.nk_style_scrollbar, %struct.nk_color, %struct.nk_color, %struct.nk_color, %struct.nk_color, %struct.nk_color, %struct.nk_color, %struct.nk_color, %struct.nk_color, %struct.nk_color, %struct.nk_color, %struct.nk_color, float, float, float, %struct.nk_vec2, %struct.nk_vec2, float, float, float }
%struct.nk_style_chart = type { %struct.nk_style_item, %struct.nk_color, %struct.nk_color, %struct.nk_color, float, float, %struct.nk_vec2, float, float, i32 }
%struct.nk_style_scrollbar = type { %struct.nk_style_item, %struct.nk_style_item, %struct.nk_style_item, %struct.nk_color, %struct.nk_style_item, %struct.nk_style_item, %struct.nk_style_item, %struct.nk_color, float, float, float, float, %struct.nk_vec2, float, float, i32, %struct.nk_style_button, %struct.nk_style_button, i32, i32, %union.nk_handle, ptr, ptr }
%struct.nk_style_tab = type { %struct.nk_style_item, %struct.nk_color, %struct.nk_color, %struct.nk_style_button, %struct.nk_style_button, %struct.nk_style_button, %struct.nk_style_button, i32, i32, float, float, float, %struct.nk_vec2, %struct.nk_vec2, float, float }
%struct.nk_style_combo = type { %struct.nk_style_item, %struct.nk_style_item, %struct.nk_style_item, %struct.nk_color, %struct.nk_color, %struct.nk_color, %struct.nk_color, %struct.nk_color, %struct.nk_color, %struct.nk_color, %struct.nk_style_button, i32, i32, i32, float, float, %struct.nk_vec2, %struct.nk_vec2, %struct.nk_vec2, float, float }
%struct.nk_style_window = type { %struct.nk_style_window_header, %struct.nk_style_item, %struct.nk_color, %struct.nk_color, %struct.nk_color, %struct.nk_color, %struct.nk_color, %struct.nk_color, %struct.nk_color, %struct.nk_color, %struct.nk_style_item, float, float, float, float, float, float, float, float, float, %struct.nk_vec2, %struct.nk_vec2, %struct.nk_vec2, %struct.nk_vec2, %struct.nk_vec2, %struct.nk_vec2, %struct.nk_vec2, %struct.nk_vec2, %struct.nk_vec2, %struct.nk_vec2 }
%struct.nk_style_window_header = type { %struct.nk_style_item, %struct.nk_style_item, %struct.nk_style_item, %struct.nk_style_button, %struct.nk_style_button, i32, i32, i32, %struct.nk_color, %struct.nk_color, %struct.nk_color, i32, %struct.nk_vec2, %struct.nk_vec2, %struct.nk_vec2 }
%struct.nk_clipboard = type { %union.nk_handle, ptr, ptr }
%struct.nk_configuration_stacks = type { %struct.nk_config_stack_style_item, %struct.nk_config_stack_float, %struct.nk_config_stack_vec2, %struct.nk_config_stack_flags, %struct.nk_config_stack_color, %struct.nk_config_stack_user_font, %struct.nk_config_stack_button_behavior }
%struct.nk_config_stack_style_item = type { i32, [16 x %struct.nk_config_stack_style_item_element] }
%struct.nk_config_stack_style_item_element = type { ptr, %struct.nk_style_item }
%struct.nk_config_stack_float = type { i32, [32 x %struct.nk_config_stack_float_element] }
%struct.nk_config_stack_float_element = type { ptr, float }
%struct.nk_config_stack_vec2 = type { i32, [16 x %struct.nk_config_stack_vec2_element] }
%struct.nk_config_stack_vec2_element = type { ptr, %struct.nk_vec2 }
%struct.nk_config_stack_flags = type { i32, [32 x %struct.nk_config_stack_flags_element] }
%struct.nk_config_stack_flags_element = type { ptr, i32 }
%struct.nk_config_stack_color = type { i32, [32 x %struct.nk_config_stack_color_element] }
%struct.nk_config_stack_color_element = type { ptr, %struct.nk_color }
%struct.nk_config_stack_user_font = type { i32, [8 x %struct.nk_config_stack_user_font_element] }
%struct.nk_config_stack_user_font_element = type { ptr, ptr }
%struct.nk_config_stack_button_behavior = type { i32, [8 x %struct.nk_config_stack_button_behavior_element] }
%struct.nk_config_stack_button_behavior_element = type { ptr, i32 }
%struct.nk_text_edit = type { %struct.nk_clipboard, %struct.nk_str, ptr, %struct.nk_vec2, i32, i32, i32, i8, i8, i8, i8, i8, i8, i8, float, %struct.nk_text_undo_state }
%struct.nk_text_undo_state = type { [99 x %struct.nk_text_undo_record], [999 x i32], i16, i16, i16, i16 }
%struct.nk_text_undo_record = type { i32, i16, i16, i16 }
%struct.nk_pool = type { %struct.nk_allocator, i32, i32, ptr, ptr, i32, i64, i64 }
%struct.nk_window = type { i32, i32, [64 x i8], i32, %struct.nk_rect, %struct.nk_scroll, %struct.nk_command_buffer, ptr, float, %struct.nk_property_state, %struct.nk_popup_state, %struct.nk_edit_state, i32, i32, ptr, i32, ptr, ptr, ptr }
%struct.nk_scroll = type { i32, i32 }
%struct.nk_property_state = type { i32, i32, [64 x i8], i32, i32, i32, i32, i32, i32, i32, i32 }
%struct.nk_popup_state = type { ptr, i32, %struct.nk_popup_buffer, i32, i32, i32, i32, i32, i32, %struct.nk_rect }
%struct.nk_popup_buffer = type { i64, i64, i64, i64, i32 }
%struct.nk_edit_state = type { i32, i32, i32, i32, i32, i32, i32, i32, %struct.nk_scroll, i8, i8 }
%struct.nk_panel = type { i32, i32, %struct.nk_rect, ptr, ptr, float, float, float, float, float, float, i32, %struct.nk_rect, %struct.nk_menu_state, %struct.nk_row_layout, %struct.nk_chart, ptr, ptr }
%struct.nk_menu_state = type { float, float, float, float, %struct.nk_scroll }
%struct.nk_row_layout = type { i32, i32, float, float, i32, ptr, float, float, float, float, %struct.nk_rect, i32, [16 x float] }
%struct.nk_chart = type { i32, float, float, float, float, [4 x %struct.nk_chart_slot] }
%struct.nk_chart_slot = type { i32, %struct.nk_color, %struct.nk_color, float, float, float, i32, %struct.nk_vec2, i32, i32 }

; Function Attrs: nounwind uwtable
define i32 @nk_button_symbol_styled(ptr noundef %0, ptr noundef %1, i32 noundef %2) #2 {
  %4 = alloca i32, align 4
  %5 = alloca ptr, align 8
  %6 = alloca ptr, align 8
  %7 = alloca i32, align 4
  %8 = alloca ptr, align 8
  %9 = alloca ptr, align 8
  %10 = alloca ptr, align 8
  %11 = alloca %struct.nk_rect, align 4
  %12 = alloca i32, align 4
  %13 = alloca i32, align 4
  store ptr %0, ptr %5, align 8, !tbaa !372
  store ptr %1, ptr %6, align 8, !tbaa !825
  store i32 %2, ptr %7, align 4, !tbaa !13
  call void @llvm.lifetime.start.p0(i64 8, ptr %8) #10
  call void @llvm.lifetime.start.p0(i64 8, ptr %9) #10
  call void @llvm.lifetime.start.p0(i64 8, ptr %10) #10
  call void @llvm.lifetime.start.p0(i64 16, ptr %11) #10
  call void @llvm.lifetime.start.p0(i64 4, ptr %12) #10
  %14 = load ptr, ptr %5, align 8, !tbaa !372
  %15 = icmp ne ptr %14, null
  br i1 %15, label %16, label %28

16:                                               ; preds = %3
  %17 = load ptr, ptr %5, align 8, !tbaa !372
  %18 = getelementptr inbounds nuw %struct.nk_context, ptr %17, i32 0, i32 17
  %19 = load ptr, ptr %18, align 8, !tbaa !955
  %20 = icmp ne ptr %19, null
  br i1 %20, label %21, label %28

21:                                               ; preds = %16
  %22 = load ptr, ptr %5, align 8, !tbaa !372
  %23 = getelementptr inbounds nuw %struct.nk_context, ptr %22, i32 0, i32 17
  %24 = load ptr, ptr %23, align 8, !tbaa !955
  %25 = getelementptr inbounds nuw %struct.nk_window, ptr %24, i32 0, i32 7
  %26 = load ptr, ptr %25, align 8, !tbaa !956
  %27 = icmp ne ptr %26, null
  br i1 %27, label %29, label %28

28:                                               ; preds = %21, %16, %3
  store i32 0, ptr %4, align 4
  store i32 1, ptr %13, align 4
  br label %78

29:                                               ; preds = %21
  %30 = load ptr, ptr %5, align 8, !tbaa !372
  %31 = getelementptr inbounds nuw %struct.nk_context, ptr %30, i32 0, i32 17
  %32 = load ptr, ptr %31, align 8, !tbaa !955
  store ptr %32, ptr %8, align 8, !tbaa !424
  %33 = load ptr, ptr %8, align 8, !tbaa !424
  %34 = getelementptr inbounds nuw %struct.nk_window, ptr %33, i32 0, i32 7
  %35 = load ptr, ptr %34, align 8, !tbaa !956
  store ptr %35, ptr %9, align 8, !tbaa !957
  %36 = load ptr, ptr %5, align 8, !tbaa !372
  %37 = call i32 @nk_widget(ptr noundef %11, ptr noundef %36)
  store i32 %37, ptr %12, align 4, !tbaa !13
  %38 = load i32, ptr %12, align 4, !tbaa !13
  %39 = icmp ne i32 %38, 0
  br i1 %39, label %41, label %40

40:                                               ; preds = %29
  store i32 0, ptr %4, align 4
  store i32 1, ptr %13, align 4
  br label %78

41:                                               ; preds = %29
  %42 = load i32, ptr %12, align 4, !tbaa !13
  %43 = icmp eq i32 %42, 2
  br i1 %43, label %53, label %44

44:                                               ; preds = %41
  %45 = load i32, ptr %12, align 4, !tbaa !13
  %46 = icmp eq i32 %45, 3
  br i1 %46, label %53, label %47

47:                                               ; preds = %44
  %48 = load ptr, ptr %9, align 8, !tbaa !957
  %49 = getelementptr inbounds nuw %struct.nk_panel, ptr %48, i32 0, i32 1
  %50 = load i32, ptr %49, align 4, !tbaa !1087
  %51 = and i32 %50, 4096
  %52 = icmp ne i32 %51, 0
  br i1 %52, label %53, label %54

53:                                               ; preds = %47, %44, %41
  br label %57

54:                                               ; preds = %47
  %55 = load ptr, ptr %5, align 8, !tbaa !372
  %56 = getelementptr inbounds nuw %struct.nk_context, ptr %55, i32 0, i32 0
  br label %57

57:                                               ; preds = %54, %53
  %58 = phi ptr [ null, %53 ], [ %56, %54 ]
  store ptr %58, ptr %10, align 8, !tbaa !788
  %59 = load ptr, ptr %5, align 8, !tbaa !372
  %60 = getelementptr inbounds nuw %struct.nk_context, ptr %59, i32 0, i32 4
  %61 = load ptr, ptr %8, align 8, !tbaa !424
  %62 = getelementptr inbounds nuw %struct.nk_window, ptr %61, i32 0, i32 6
  %63 = load i32, ptr %7, align 4, !tbaa !13
  %64 = load ptr, ptr %5, align 8, !tbaa !372
  %65 = getelementptr inbounds nuw %struct.nk_context, ptr %64, i32 0, i32 5
  %66 = load i32, ptr %65, align 4, !tbaa !1293
  %67 = load ptr, ptr %6, align 8, !tbaa !825
  %68 = load ptr, ptr %10, align 8, !tbaa !788
  %69 = load ptr, ptr %5, align 8, !tbaa !372
  %70 = getelementptr inbounds nuw %struct.nk_context, ptr %69, i32 0, i32 1
  %71 = getelementptr inbounds nuw %struct.nk_style, ptr %70, i32 0, i32 0
  %72 = load ptr, ptr %71, align 8, !tbaa !958
  %73 = getelementptr inbounds nuw { <2 x float>, <2 x float> }, ptr %11, i32 0, i32 0
  %74 = load <2 x float>, ptr %73, align 4
  %75 = getelementptr inbounds nuw { <2 x float>, <2 x float> }, ptr %11, i32 0, i32 1
  %76 = load <2 x float>, ptr %75, align 4
  %77 = call i32 @nk_do_button_symbol(ptr noundef %60, ptr noundef %62, <2 x float> %74, <2 x float> %76, i32 noundef %63, i32 noundef %66, ptr noundef %67, ptr noundef %68, ptr noundef %72)
  store i32 %77, ptr %4, align 4
  store i32 1, ptr %13, align 4
  br label %78

78:                                               ; preds = %57, %40, %28
  call void @llvm.lifetime.end.p0(i64 4, ptr %12) #10
  call void @llvm.lifetime.end.p0(i64 16, ptr %11) #10
  call void @llvm.lifetime.end.p0(i64 8, ptr %10) #10
  call void @llvm.lifetime.end.p0(i64 8, ptr %9) #10
  call void @llvm.lifetime.end.p0(i64 8, ptr %8) #10
  %79 = load i32, ptr %4, align 4
  ret i32 %79
}

; Function Attrs: nounwind uwtable
define i32 @nk_button_symbol(ptr noundef %0, i32 noundef %1) #0 {
  %3 = alloca i32, align 4
  %4 = alloca ptr, align 8
  %5 = alloca i32, align 4
  store ptr %0, ptr %4, align 8, !tbaa !372
  store i32 %1, ptr %5, align 4, !tbaa !13
  %6 = load ptr, ptr %4, align 8, !tbaa !372
  %7 = icmp ne ptr %6, null
  br i1 %7, label %9, label %8

8:                                                ; preds = %2
  store i32 0, ptr %3, align 4
  br label %16

9:                                                ; preds = %2
  %10 = load ptr, ptr %4, align 8, !tbaa !372
  %11 = load ptr, ptr %4, align 8, !tbaa !372
  %12 = getelementptr inbounds nuw %struct.nk_context, ptr %11, i32 0, i32 1
  %13 = getelementptr inbounds nuw %struct.nk_style, ptr %12, i32 0, i32 6
  %14 = load i32, ptr %5, align 4, !tbaa !13
  %15 = call i32 @nk_button_symbol_styled(ptr noundef %10, ptr noundef %13, i32 noundef %14)
  store i32 %15, ptr %3, align 4
  br label %16

16:                                               ; preds = %9, %8
  %17 = load i32, ptr %3, align 4
  ret i32 %17
}