; Function Attrs: nounwind uwtable
define i32 @nk_button_symbol(ptr noundef captures(address_is_null) %0, i32 noundef %1) local_unnamed_addr #21 {
  %3 = alloca %struct.nk_rect, align 8
  %.not = icmp eq ptr %0, null
  br i1 %.not, label %29, label %4

4:                                                ; preds = %2
  %5 = getelementptr inbounds nuw i8, ptr %0, i64 464
  call void @llvm.lifetime.start.p0(i64 16, ptr nonnull %3) #51
  %6 = getelementptr inbounds nuw i8, ptr %0, i64 18520
  %7 = load ptr, ptr %6, align 8, !tbaa !824
  %.not23.i = icmp eq ptr %7, null
  br i1 %.not23.i, label %nk_button_symbol_styled.exit, label %8

8:                                                ; preds = %4
  %9 = getelementptr inbounds nuw i8, ptr %7, i64 168
  %10 = load ptr, ptr %9, align 8, !tbaa !825
  %.not24.i = icmp eq ptr %10, null
  br i1 %.not24.i, label %nk_button_symbol_styled.exit, label %11

11:                                               ; preds = %8
  %12 = call i32 @nk_widget(ptr noundef nonnull %3, ptr noundef nonnull %0)
  switch i32 %12, label %17 [
    i32 0, label %nk_button_symbol_styled.exit
    i32 1, label %13
  ]

13:                                               ; preds = %11
  %14 = getelementptr inbounds nuw i8, ptr %10, i64 4
  %15 = load i32, ptr %14, align 4, !tbaa !910
  %16 = and i32 %15, 4096
  %.not26.i = icmp eq i32 %16, 0
  %spec.select.i = select i1 %.not26.i, ptr %0, ptr null
  br label %17

17:                                               ; preds = %13, %11
  %18 = phi ptr [ null, %11 ], [ %spec.select.i, %13 ]
  %19 = getelementptr inbounds nuw i8, ptr %0, i64 9840
  %20 = getelementptr inbounds nuw i8, ptr %7, i64 104
  %21 = getelementptr inbounds nuw i8, ptr %0, i64 9844
  %22 = load i32, ptr %21, align 4, !tbaa !1118
  %23 = getelementptr inbounds nuw i8, ptr %0, i64 360
  %24 = load ptr, ptr %23, align 8, !tbaa !835
  %25 = load <2 x float>, ptr %3, align 8
  %26 = getelementptr inbounds nuw i8, ptr %3, i64 8
  %27 = load <2 x float>, ptr %26, align 8
  %28 = tail call fastcc i32 @nk_do_button_symbol(ptr noundef %19, ptr noundef nonnull %20, <2 x float> %25, <2 x float> %27, i32 noundef %1, i32 noundef %22, ptr noundef nonnull %5, ptr noundef %18, ptr noundef %24)
  br label %nk_button_symbol_styled.exit

nk_button_symbol_styled.exit:                     ; preds = %4, %8, %11, %17
  %.0.i = phi i32 [ %28, %17 ], [ 0, %8 ], [ 0, %4 ], [ %12, %11 ]
  call void @llvm.lifetime.end.p0(i64 16, ptr nonnull %3) #51
  br label %29

29:                                               ; preds = %2, %nk_button_symbol_styled.exit
  %.0 = phi i32 [ %.0.i, %nk_button_symbol_styled.exit ], [ 0, %2 ]
  ret i32 %.0
}